(dp0
S''
p1
(lp2
(lp3
F6.449961940179288
aF9.77138576903428
aI2
aa(lp4
F6.436551237974237
aF9.76890880491135
aI2
aa(lp5
F6.449559120358904
aF9.771739431792652
aI2
aa(lp6
F6.481149442672369
aF9.778642943113343
aI2
aa(lp7
F6.463633129285803
aF9.77452873850897
aI2
aa(lp8
F6.442415549168409
aF9.770048993010015
aI2
aa(lp9
F6.460473280334663
aF9.774246396687895
aI2
aa(lp10
F6.4590803096041896
aF9.773533487273685
aI2
aa(lp11
F6.4684123677496554
aF9.775699362223952
aI2
aa(lp12
F6.451882878034308
aF9.771880501895385
aI2
aas.