(dp0
S''
p1
(lp2
(lp3
F6.525820813108988
aF12.24258645668253
acnumpy.core.multiarray
_reconstruct
p4
(cnumpy
ndarray
p5
(I0
tp6
S'b'
p7
tp8
Rp9
(I1
(I0
tp10
cnumpy
dtype
p11
(S'f8'
p12
I0
I1
tp13
Rp14
(I3
S'<'
p15
NNNI-1
I-1
I0
tp16
bI00
g1
tp17
baa(lp18
F6.525694075065344
aF12.242491827181087
ag4
(g5
(I0
tp19
g7
tp20
Rp21
(I1
(I0
tp22
g14
I00
g1
tp23
baa(lp24
F6.548045874882661
aF12.24263447280463
ag4
(g5
(I0
tp25
g7
tp26
Rp27
(I1
(I0
tp28
g14
I00
g1
tp29
baa(lp30
F6.555084604136491
aF12.242595354429337
ag4
(g5
(I0
tp31
g7
tp32
Rp33
(I1
(I0
tp34
g14
I00
g1
tp35
baa(lp36
F6.535612151306035
aF12.241496558717573
ag4
(g5
(I0
tp37
g7
tp38
Rp39
(I1
(I0
tp40
g14
I00
g1
tp41
baa(lp42
F6.534079204963459
aF12.241965195418539
ag4
(g5
(I0
tp43
g7
tp44
Rp45
(I1
(I0
tp46
g14
I00
g1
tp47
baa(lp48
F6.542414308216372
aF12.242644684055772
ag4
(g5
(I0
tp49
g7
tp50
Rp51
(I1
(I0
tp52
g14
I00
g1
tp53
baa(lp54
F6.546360212187153
aF12.242769280555839
ag4
(g5
(I0
tp55
g7
tp56
Rp57
(I1
(I0
tp58
g14
I00
g1
tp59
baa(lp60
F6.542773315159012
aF12.242612035512405
ag4
(g5
(I0
tp61
g7
tp62
Rp63
(I1
(I0
tp64
g14
I00
g1
tp65
baa(lp66
F9.544754884730633
aF15.188712912347391
ag4
(g5
(I0
tp67
g7
tp68
Rp69
(I1
(I0
tp70
g14
I00
g1
tp71
baas.